Certificate:
    Data:
        Version: 3 (0x2)
        Serial Number: 2 (0x2)
    Signature Algorithm: sha256WithRSAEncryption
        Issuer: C=US, ST=Maryland, L=Baltimore, O=Test CA, Limited, OU=Server Research Department, CN=Test CA/emailAddress=test@example.com
        Validity
            Not Before: May 17 08:47:07 2023 GMT
            Not After : May 14 08:47:07 2033 GMT
        Subject: C=US, ST=MD, L=Baltimore, O=Test Server, Limited, CN=Test Server
        Subject Public Key Info:
            Public Key Algorithm: rsaEncryption
                Public-Key: (2048 bit)
                Modulus:
                    00:d0:2b:aa:bb:fa:53:dd:fc:b7:f7:4f:54:ad:ee:
                    1e:76:67:75:2d:54:d0:7d:9d:87:35:35:ba:1d:2c:
                    76:0a:a1:5c:00:18:ad:9f:2c:43:45:87:0b:c3:c3:
                    ca:c4:18:58:b9:8c:d0:65:de:66:fb:88:db:d0:70:
                    3e:55:c4:0f:d1:12:dc:47:cd:89:81:97:02:ce:e5:
                    64:b2:86:9b:34:b0:fe:19:33:90:f5:f0:47:3d:ca:
                    7d:b4:5c:c4:56:45:6c:f8:e1:4f:6a:81:95:09:9e:
                    18:8c:a5:a1:34:5d:11:02:47:1a:c5:02:f0:f0:e1:
                    06:a8:b8:87:d2:63:ac:0a:cb:a9:6a:83:7e:28:0a:
                    1d:c6:49:91:d7:9e:19:ab:40:9e:35:c3:32:ef:4a:
                    7a:31:f3:ee:b9:79:7f:c9:01:67:1c:51:c4:50:c3:
                    d3:54:1b:30:b6:af:d3:91:e2:7f:05:7f:4a:91:c4:
                    4a:e0:74:e2:ab:08:e7:61:c2:66:9b:39:18:6a:cd:
                    8c:5c:a6:83:b9:d1:31:77:05:8e:cc:2f:21:1f:d3:
                    59:d8:4c:b7:60:b4:b3:28:28:25:59:ea:39:f2:a4:
                    0c:eb:0c:77:e8:70:de:d5:fc:5d:d2:e6:6d:66:8e:
                    b5:d1:6f:f0:d5:ac:a1:30:b2:bc:8b:74:ef:26:7b:
                    01:7b
                Exponent: 65537 (0x10001)
        X509v3 extensions:
            X509v3 Subject Key Identifier:
                B6:94:4B:FA:BA:76:98:95:A7:37:15:DE:FF:FF:1E:9A:C3:B6:31:AC
            X509v3 Authority Key Identifier:
                keyid:C4:91:5F:8C:6E:C8:B5:1D:33:22:79:58:95:1F:B4:DF:45:29:E3:56

            X509v3 Basic Constraints:
                CA:FALSE
            X509v3 Key Usage:
                Digital Signature, Key Encipherment
            X509v3 Subject Alternative Name:
                DNS:example.com, DNS:www.example.com, DNS:mail.example.com, DNS:ftp.example.com
            Netscape Comment:
                OpenSSL Generated Certificate
    Signature Algorithm: sha256WithRSAEncryption
         5a:b0:fa:57:34:d2:43:be:dd:8b:c0:ef:a4:b3:9c:14:8c:c0:
         f1:20:b8:8f:a2:ae:a4:e8:da:c8:17:d3:4a:8f:a6:26:f8:4e:
         c4:d0:4e:e6:4b:9c:b3:dd:e1:83:b0:67:f3:ac:f2:c2:e5:1d:
         64:2d:f2:91:8d:f3:0a:d5:92:82:58:08:e9:10:6c:77:81:03:
         65:cb:48:96:c5:5e:8d:84:3c:0e:3d:af:25:ed:47:2f:7f:7b:
         62:23:b0:db:04:8c:0d:cb:38:59:66:3b:7a:29:62:d6:8c:c9:
         50:22:d2:c6:9b:88:f2:75:48:b1:f4:5b:d9:d1:68:51:fd:bd:
         83:cf:e1:3d:9f:46:fa:e4:40:93:91:8a:20:33:05:92:f3:e9:
         6a:d5:25:77:f8:09:fa:9d:c2:57:7e:7f:67:ad:e7:56:be:dc:
         66:07:3c:65:13:97:a7:07:97:76:53:71:8a:36:6e:a8:e2:38:
         c1:35:0e:0c:40:9b:a7:9c:dd:e4:85:5f:a4:74:2c:10:4d:17:
         be:54:92:dd:05:3f:fd:a5:8a:2b:f9:04:44:b9:a1:59:e5:56:
         0e:35:e0:d3:8f:2f:10:5f:d4:a2:fb:8b:dd:56:95:ea:71:c9:
         49:0f:49:c5:14:e8:f5:fc:fa:82:7f:a3:50:45:aa:27:a0:97:
         b2:2c:16:23:09:15:8e:60:ba:81:59:9e:e1:47:f9:77:cd:a2:
         15:ab:92:29:aa:46:38:4c:1d:f8:53:4f:0d:84:2c:68:35:3c:
         fd:26:f6:f8:06:62:f4:b0:1d:aa:24:23:23:6a:cf:19:a9:1f:
         4f:49:86:4b:8a:b3:9a:2c:f3:8f:b0:b1:87:c7:8c:9a:d3:43:
         47:0e:a6:e7:a6:c6:a8:e8:6b:d4:5d:95:0f:49:32:7c:03:ff:
         1b:7f:13:f6:6e:ad:c5:e9:db:94:7b:2e:4e:05:1b:2f:81:89:
         aa:85:73:21:4d:f3:4f:42:ca:94:d4:3a:af:ff:ff:ab:c7:f1:
         8c:91:77:52:13:34:e5:d9:e8:b0:05:48:0e:f2:b6:ec:8b:62:
         75:25:4a:5e:5e:9c:6c:53:fb:ba:8c:ad:2c:cb:76:19:9b:24:
         4f:cd:d2:a2:b1:ce:b3:50:4e:1e:92:f9:8d:0a:5b:24:da:6f:
         78:e1:03:59:39:a1:62:02:24:e6:fd:24:4b:00:58:26:83:d4:
         34:b3:f4:87:cd:06:ea:78:5f:6d:8d:0d:8f:b8:40:f2:21:25:
         68:c7:1e:7e:9a:cc:36:ea:d9:1a:bb:82:75:81:fb:1c:46:40:
         42:a0:f5:5b:d9:01:70:43:4d:37:b3:23:f4:3c:1c:ef:00:35:
         b3:3b:f7:5b:c0:f9:9d:a1
-----BEGIN CERTIFICATE-----
MIIFXDCCA0SgAwIBAgIBAjANBgkqhkiG9w0BAQsFADCBpzELMAkGA1UEBhMCVVMx
ETAPBgNVBAgMCE1hcnlsYW5kMRIwEAYDVQQHDAlCYWx0aW1vcmUxGTAXBgNVBAoM
EFRlc3QgQ0EsIExpbWl0ZWQxIzAhBgNVBAsMGlNlcnZlciBSZXNlYXJjaCBEZXBh
cnRtZW50MRAwDgYDVQQDDAdUZXN0IENBMR8wHQYJKoZIhvcNAQkBFhB0ZXN0QGV4
YW1wbGUuY29tMB4XDTIzMDUxNzA4NDcwN1oXDTMzMDUxNDA4NDcwN1owYzELMAkG
A1UEBhMCVVMxCzAJBgNVBAgMAk1EMRIwEAYDVQQHDAlCYWx0aW1vcmUxHTAbBgNV
BAoMFFRlc3QgU2VydmVyLCBMaW1pdGVkMRQwEgYDVQQDDAtUZXN0IFNlcnZlcjCC
ASIwDQYJKoZIhvcNAQEBBQADggEPADCCAQoCggEBANArqrv6U938t/dPVK3uHnZn
dS1U0H2dhzU1uh0sdgqhXAAYrZ8sQ0WHC8PDysQYWLmM0GXeZvuI29BwPlXED9ES
3EfNiYGXAs7lZLKGmzSw/hkzkPXwRz3KfbRcxFZFbPjhT2qBlQmeGIyloTRdEQJH
GsUC8PDhBqi4h9JjrArLqWqDfigKHcZJkdeeGatAnjXDMu9KejHz7rl5f8kBZxxR
xFDD01QbMLav05HifwV/SpHESuB04qsI52HCZps5GGrNjFymg7nRMXcFjswvIR/T
WdhMt2C0sygoJVnqOfKkDOsMd+hw3tX8XdLmbWaOtdFv8NWsoTCyvIt07yZ7AXsC
AwEAAaOB1TCB0jAdBgNVHQ4EFgQUtpRL+rp2mJWnNxXe//8emsO2MawwHwYDVR0j
BBgwFoAUxJFfjG7ItR0zInlYlR+030Up41YwCQYDVR0TBAIwADALBgNVHQ8EBAMC
BaAwSgYDVR0RBEMwQYILZXhhbXBsZS5jb22CD3d3dy5leGFtcGxlLmNvbYIQbWFp
bC5leGFtcGxlLmNvbYIPZnRwLmV4YW1wbGUuY29tMCwGCWCGSAGG+EIBDQQfFh1P
cGVuU1NMIEdlbmVyYXRlZCBDZXJ0aWZpY2F0ZTANBgkqhkiG9w0BAQsFAAOCAgEA
WrD6VzTSQ77di8DvpLOcFIzA8SC4j6KupOjayBfTSo+mJvhOxNBO5kucs93hg7Bn
86zywuUdZC3ykY3zCtWSglgI6RBsd4EDZctIlsVejYQ8Dj2vJe1HL397YiOw2wSM
Dcs4WWY7eili1ozJUCLSxpuI8nVIsfRb2dFoUf29g8/hPZ9G+uRAk5GKIDMFkvPp
atUld/gJ+p3CV35/Z63nVr7cZgc8ZROXpweXdlNxijZuqOI4wTUODECbp5zd5IVf
pHQsEE0XvlSS3QU//aWKK/kERLmhWeVWDjXg048vEF/UovuL3VaV6nHJSQ9JxRTo
9fz6gn+jUEWqJ6CXsiwWIwkVjmC6gVme4Uf5d82iFauSKapGOEwd+FNPDYQsaDU8
/Sb2+AZi9LAdqiQjI2rPGakfT0mGS4qzmizzj7Cxh8eMmtNDRw6m56bGqOhr1F2V
D0kyfAP/G38T9m6txenblHsuTgUbL4GJqoVzIU3zT0LKlNQ6r///q8fxjJF3UhM0
5dnosAVIDvK27ItidSVKXl6cbFP7uoytLMt2GZskT83SorHOs1BOHpL5jQpbJNpv
eOEDWTmhYgIk5v0kSwBYJoPUNLP0h80G6nhfbY0Nj7hA8iElaMcefprMNurZGruC
dYH7HEZAQqD1W9kBcENNN7Mj9Dwc7wA1szv3W8D5naE=
-----END CERTIFICATE-----
