Certificate:
    Data:
        Version: 3 (0x2)
        Serial Number: 1 (0x1)
    Signature Algorithm: sha256WithRSAEncryption
        Issuer: C=US, ST=Maryland, L=Baltimore, O=Test CA, Limited, OU=Server Research Department, CN=Test CA/emailAddress=test@example.com
        Validity
            Not Before: May 17 08:46:00 2023 GMT
            Not After : May 14 08:46:00 2033 GMT
        Subject: C=US, ST=MD, L=Baltimore, O=Test Server, Limited, CN=Test Server
        Subject Public Key Info:
            Public Key Algorithm: rsaEncryption
                Public-Key: (2048 bit)
                Modulus:
                    00:b4:bb:38:ec:70:51:c2:a1:14:5e:77:87:2f:56:
                    2b:11:29:d6:d3:aa:1a:57:24:c0:fd:16:db:13:e5:
                    a2:f4:a6:f5:98:09:57:b7:67:82:0b:bc:99:6f:bf:
                    55:7c:47:ef:c4:ca:2f:c3:00:9b:36:0b:d4:23:91:
                    54:2f:b7:d7:5b:97:d7:3c:a5:e1:b3:8c:12:bb:c8:
                    85:ad:b9:5d:93:7d:b2:4e:18:b9:c0:23:24:10:a7:
                    50:45:e1:45:0f:bf:73:d6:dd:69:13:d5:d0:0a:05:
                    7f:e6:e3:ae:e2:59:c1:f6:cd:d0:a9:83:38:49:f9:
                    59:d7:c8:fd:17:de:b0:fd:bd:43:29:c2:3b:b9:31:
                    e1:41:9b:5f:37:62:df:43:5f:1d:30:a5:b9:b5:33:
                    16:4c:98:ca:8d:11:af:15:89:f7:3e:cc:59:f8:55:
                    91:f5:99:eb:28:1c:0a:25:fe:4e:3d:3b:56:d7:af:
                    45:2b:ad:d9:5a:86:83:4b:43:3b:76:cf:7c:fd:0e:
                    f2:81:73:b3:46:d7:3b:6c:a0:f0:a6:b1:fa:fe:52:
                    02:b4:7c:c8:d6:2f:c8:42:4b:65:d7:23:f7:34:e1:
                    2f:e7:5f:36:4e:4d:5b:94:85:6f:95:14:7a:29:67:
                    b3:50:52:2f:73:5d:1e:cc:9f:e8:9a:18:6d:72:7e:
                    78:eb
                Exponent: 65537 (0x10001)
        X509v3 extensions:
            X509v3 Subject Key Identifier:
                03:D5:0D:B1:C5:30:D5:B5:4A:9B:FD:67:20:26:81:3A:6E:FE:BC:3C
            X509v3 Authority Key Identifier:
                keyid:C4:91:5F:8C:6E:C8:B5:1D:33:22:79:58:95:1F:B4:DF:45:29:E3:56

            X509v3 Basic Constraints:
                CA:FALSE
            X509v3 Key Usage:
                Digital Signature, Key Encipherment
            X509v3 Subject Alternative Name:
                DNS:example.com, DNS:www.example.com, DNS:mail.example.com, DNS:ftp.example.com
            Netscape Comment:
                OpenSSL Generated Certificate
    Signature Algorithm: sha256WithRSAEncryption
         0f:b0:31:48:61:30:0b:d8:ff:75:6d:7b:db:fa:8f:36:ce:3b:
         a8:db:4b:1a:b8:ce:ad:96:a9:3a:a5:b7:a9:96:3e:48:34:71:
         29:21:fb:e9:7f:03:c5:22:2a:b3:35:d8:38:82:ff:38:53:fd:
         35:f0:e5:1f:f4:4c:26:92:6c:c1:83:c1:5e:97:78:f9:37:26:
         ba:48:5a:4a:88:69:48:3b:d1:ae:2e:27:22:3b:56:b5:ac:50:
         cd:72:89:cc:62:5d:a5:a9:47:db:af:f3:85:ea:5c:b6:21:16:
         9b:fd:0e:eb:33:49:43:57:0c:ce:0f:c6:77:51:55:ce:76:55:
         65:88:6b:d8:28:c6:a5:ce:d3:4f:ef:f5:5a:60:f4:0f:65:7a:
         41:49:ec:b0:c4:a2:f3:9f:ae:59:c8:4d:68:b5:29:97:ef:b5:
         a6:c7:60:ed:ba:0f:6d:99:c2:fe:99:e0:1a:98:86:5f:36:70:
         1d:5a:b5:9a:53:60:27:02:db:a3:eb:b7:4f:d6:9e:5c:a7:4e:
         58:64:4c:53:13:42:70:95:7a:54:82:87:00:fd:06:2c:d9:6d:
         23:1a:20:c1:87:5e:70:fc:04:29:f2:54:f9:e9:b2:26:cb:24:
         f6:39:19:65:a3:c9:3c:3c:6f:68:a4:87:94:36:0d:45:d8:aa:
         de:79:2d:26:0c:f4:18:c8:4e:3a:90:83:ac:64:cd:12:d3:1b:
         06:ad:08:0b:e0:78:93:62:2b:42:9f:94:96:c2:50:4b:05:3a:
         99:52:76:77:31:d8:a7:a0:57:bd:73:ac:73:64:3c:08:27:84:
         ec:3c:f1:74:da:e2:f2:df:20:71:69:99:b3:cd:98:d8:66:85:
         1b:b6:de:2c:60:ac:f0:fe:35:1b:9e:a4:e9:63:86:8f:35:93:
         d0:db:24:10:e9:c0:7e:ae:4b:a5:ac:76:61:76:22:ec:a1:9b:
         75:f3:73:52:d9:38:ff:06:85:66:86:2b:db:a1:37:a2:d7:89:
         7d:3f:be:a2:38:d8:5a:2a:df:c6:52:ba:a4:71:fe:e8:62:87:
         e7:e2:c7:8e:ea:ce:26:f4:0e:ce:d0:3b:9b:6d:db:ad:a4:cc:
         2b:db:63:a1:36:c4:f1:50:bd:fd:ea:a1:7e:48:99:b9:c2:c5:
         b7:e3:05:df:29:79:e6:1d:69:fe:f6:e6:c3:da:59:a9:e0:aa:
         9d:9a:a0:2b:3f:28:22:27:6b:76:97:2e:8d:5c:1d:80:c5:65:
         cd:4d:a9:18:05:ae:d2:b8:a5:40:e7:34:cb:29:ff:94:12:5b:
         09:20:f4:9a:78:4c:0a:93:b5:5b:14:20:e1:00:02:1f:94:a0:
         1e:a2:9b:34:93:f3:04:68
-----BEGIN CERTIFICATE-----
MIIFXDCCA0SgAwIBAgIBATANBgkqhkiG9w0BAQsFADCBpzELMAkGA1UEBhMCVVMx
ETAPBgNVBAgMCE1hcnlsYW5kMRIwEAYDVQQHDAlCYWx0aW1vcmUxGTAXBgNVBAoM
EFRlc3QgQ0EsIExpbWl0ZWQxIzAhBgNVBAsMGlNlcnZlciBSZXNlYXJjaCBEZXBh
cnRtZW50MRAwDgYDVQQDDAdUZXN0IENBMR8wHQYJKoZIhvcNAQkBFhB0ZXN0QGV4
YW1wbGUuY29tMB4XDTIzMDUxNzA4NDYwMFoXDTMzMDUxNDA4NDYwMFowYzELMAkG
A1UEBhMCVVMxCzAJBgNVBAgMAk1EMRIwEAYDVQQHDAlCYWx0aW1vcmUxHTAbBgNV
BAoMFFRlc3QgU2VydmVyLCBMaW1pdGVkMRQwEgYDVQQDDAtUZXN0IFNlcnZlcjCC
ASIwDQYJKoZIhvcNAQEBBQADggEPADCCAQoCggEBALS7OOxwUcKhFF53hy9WKxEp
1tOqGlckwP0W2xPlovSm9ZgJV7dnggu8mW+/VXxH78TKL8MAmzYL1CORVC+311uX
1zyl4bOMErvIha25XZN9sk4YucAjJBCnUEXhRQ+/c9bdaRPV0AoFf+bjruJZwfbN
0KmDOEn5WdfI/RfesP29QynCO7kx4UGbXzdi30NfHTClubUzFkyYyo0RrxWJ9z7M
WfhVkfWZ6ygcCiX+Tj07VtevRSut2VqGg0tDO3bPfP0O8oFzs0bXO2yg8Kax+v5S
ArR8yNYvyEJLZdcj9zThL+dfNk5NW5SFb5UUeilns1BSL3NdHsyf6JoYbXJ+eOsC
AwEAAaOB1TCB0jAdBgNVHQ4EFgQUA9UNscUw1bVKm/1nICaBOm7+vDwwHwYDVR0j
BBgwFoAUxJFfjG7ItR0zInlYlR+030Up41YwCQYDVR0TBAIwADALBgNVHQ8EBAMC
BaAwSgYDVR0RBEMwQYILZXhhbXBsZS5jb22CD3d3dy5leGFtcGxlLmNvbYIQbWFp
bC5leGFtcGxlLmNvbYIPZnRwLmV4YW1wbGUuY29tMCwGCWCGSAGG+EIBDQQfFh1P
cGVuU1NMIEdlbmVyYXRlZCBDZXJ0aWZpY2F0ZTANBgkqhkiG9w0BAQsFAAOCAgEA
D7AxSGEwC9j/dW172/qPNs47qNtLGrjOrZapOqW3qZY+SDRxKSH76X8DxSIqszXY
OIL/OFP9NfDlH/RMJpJswYPBXpd4+TcmukhaSohpSDvRri4nIjtWtaxQzXKJzGJd
palH26/zhepctiEWm/0O6zNJQ1cMzg/Gd1FVznZVZYhr2CjGpc7TT+/1WmD0D2V6
QUnssMSi85+uWchNaLUpl++1psdg7boPbZnC/pngGpiGXzZwHVq1mlNgJwLbo+u3
T9aeXKdOWGRMUxNCcJV6VIKHAP0GLNltIxogwYdecPwEKfJU+emyJssk9jkZZaPJ
PDxvaKSHlDYNRdiq3nktJgz0GMhOOpCDrGTNEtMbBq0IC+B4k2IrQp+UlsJQSwU6
mVJ2dzHYp6BXvXOsc2Q8CCeE7DzxdNri8t8gcWmZs82Y2GaFG7beLGCs8P41G56k
6WOGjzWT0NskEOnAfq5Lpax2YXYi7KGbdfNzUtk4/waFZoYr26E3oteJfT++ojjY
WirfxlK6pHH+6GKH5+LHjurOJvQOztA7m23braTMK9tjoTbE8VC9/eqhfkiZucLF
t+MF3yl55h1p/vbmw9pZqeCqnZqgKz8oIidrdpcujVwdgMVlzU2pGAWu0rilQOc0
yyn/lBJbCSD0mnhMCpO1WxQg4QACH5SgHqKbNJPzBGg=
-----END CERTIFICATE-----
